; Function Attrs: mustprogress nounwind uwtable
define hidden void @_ZN6Assimp11XGLImporterD0Ev(ptr noundef nonnull align 8 dereferenceable(88) %this) unnamed_addr #0 align 2 personality ptr @__gxx_personality_v0 {
entry:
  store ptr getelementptr inbounds ({ [8 x ptr] }, ptr @_ZTVN6Assimp11XGLImporterE, i64 0, i32 0, i64 2), ptr %this, align 8
  %mXmlParser.i.i = getelementptr inbounds i8, ptr %this, i64 72
  %0 = load ptr, ptr %mXmlParser.i.i, align 8
  %isnull.i.i = icmp eq ptr %0, null
  br i1 %isnull.i.i, label %_ZN6Assimp11XGLImporterD2Ev.exit, label %delete.notnull.i.i

delete.notnull.i.i:                               ; preds = %entry
  tail call void @_ZN6Assimp10TXmlParserIN4pugi8xml_nodeEE5clearEv(ptr noundef nonnull align 8 dereferenceable(40) %0)
  %mData.i.i.i = getelementptr inbounds i8, ptr %0, i64 16
  %1 = load ptr, ptr %mData.i.i.i, align 8
  %tobool.not.i.i.i.i.i.i = icmp eq ptr %1, null
  br i1 %tobool.not.i.i.i.i.i.i, label %_ZN6Assimp10TXmlParserIN4pugi8xml_nodeEED2Ev.exit.i.i, label %if.then.i.i.i.i.i.i

if.then.i.i.i.i.i.i:                              ; preds = %delete.notnull.i.i
  tail call void @_ZdlPv(ptr noundef nonnull %1) #25
  br label %_ZN6Assimp10TXmlParserIN4pugi8xml_nodeEED2Ev.exit.i.i

_ZN6Assimp10TXmlParserIN4pugi8xml_nodeEED2Ev.exit.i.i: ; preds = %if.then.i.i.i.i.i.i, %delete.notnull.i.i
  tail call void @_ZNSaIcED2Ev(ptr noundef nonnull align 1 dereferenceable(1) %mData.i.i.i) #24
  tail call void @_ZdlPv(ptr noundef nonnull %0) #25
  br label %_ZN6Assimp11XGLImporterD2Ev.exit

_ZN6Assimp11XGLImporterD2Ev.exit:                 ; preds = %entry, %_ZN6Assimp10TXmlParserIN4pugi8xml_nodeEED2Ev.exit.i.i
  store ptr null, ptr %mXmlParser.i.i, align 8
  tail call void @_ZN6Assimp12BaseImporterD2Ev(ptr noundef nonnull align 8 dereferenceable(72) %this) #24
  tail call void @_ZdlPv(ptr noundef nonnull %this) #25
  ret void
}